; Function Attrs: mustprogress uwtable
define hidden void @_Z5printRKN4lean4nameE(ptr noundef nonnull readonly align 8 captures(none) dereferenceable(8) %0) local_unnamed_addr #1 {
  %2 = load ptr, ptr %0, align 8, !tbaa !6
  %3 = ptrtoint ptr %2 to i64
  %4 = and i64 %3, 1
  %.not.i.i.i.i.i.i.i = icmp eq i64 %4, 0
  br i1 %.not.i.i.i.i.i.i.i, label %8, label %5

5:                                                ; preds = %1
  %6 = lshr i64 %3, 1
  %7 = trunc i64 %6 to i32
  br label %_ZNK4lean4name12is_anonymousEv.exit.i.i

8:                                                ; preds = %1
  %9 = getelementptr i8, ptr %2, i64 4
  %.val.i.i.i.i.i.i.i = load i32, ptr %9, align 4
  %10 = lshr i32 %.val.i.i.i.i.i.i.i, 24
  br label %_ZNK4lean4name12is_anonymousEv.exit.i.i

_ZNK4lean4name12is_anonymousEv.exit.i.i:          ; preds = %8, %5
  %.0.i.i.i.i.i.i.i = phi i32 [ %7, %5 ], [ %10, %8 ]
  %11 = icmp eq i32 %.0.i.i.i.i.i.i.i, 0
  br i1 %11, label %12, label %14

12:                                               ; preds = %_ZNK4lean4name12is_anonymousEv.exit.i.i
  %13 = tail call noundef nonnull align 8 dereferenceable(8) ptr @_ZSt16__ostream_insertIcSt11char_traitsIcEERSt13basic_ostreamIT_T0_ES6_PKS3_l(ptr noundef nonnull align 8 dereferenceable(8) @_ZSt4cout, ptr noundef nonnull @.str.2, i64 noundef 11)
  br label %_ZN4leanlsERSoRKNS_4nameE.exit

14:                                               ; preds = %_ZNK4lean4name12is_anonymousEv.exit.i.i
  tail call fastcc void @_ZN4leanL17display_name_coreERSoRKNS_4nameEbPKc(ptr noundef nonnull align 8 dereferenceable(8) @_ZSt4cout, ptr noundef nonnull readonly align 8 dereferenceable(8) %0, i1 noundef zeroext false, ptr noundef nonnull @.str)
  br label %_ZN4leanlsERSoRKNS_4nameE.exit

_ZN4leanlsERSoRKNS_4nameE.exit:                   ; preds = %12, %14
  %15 = load ptr, ptr @_ZSt4cout, align 8, !tbaa !61
  %16 = getelementptr i8, ptr %15, i64 -24
  %17 = load i64, ptr %16, align 8
  %18 = getelementptr inbounds i8, ptr @_ZSt4cout, i64 %17
  %19 = getelementptr inbounds nuw i8, ptr %18, i64 240
  %20 = load ptr, ptr %19, align 8, !tbaa !94
  %.not.i.i.i = icmp eq ptr %20, null
  br i1 %.not.i.i.i, label %21, label %_ZSt13__check_facetISt5ctypeIcEERKT_PS3_.exit.i.i

21:                                               ; preds = %_ZN4leanlsERSoRKNS_4nameE.exit
  tail call void @_ZSt16__throw_bad_castv() #23
  unreachable

_ZSt13__check_facetISt5ctypeIcEERKT_PS3_.exit.i.i: ; preds = %_ZN4leanlsERSoRKNS_4nameE.exit
  %22 = getelementptr inbounds nuw i8, ptr %20, i64 56
  %23 = load i8, ptr %22, align 8, !tbaa !107
  %.not.i1.i.i = icmp eq i8 %23, 0
  br i1 %.not.i1.i.i, label %27, label %24

24:                                               ; preds = %_ZSt13__check_facetISt5ctypeIcEERKT_PS3_.exit.i.i
  %25 = getelementptr inbounds nuw i8, ptr %20, i64 67
  %26 = load i8, ptr %25, align 1, !tbaa !3
  br label %_ZSt4endlIcSt11char_traitsIcEERSt13basic_ostreamIT_T0_ES6_.exit

27:                                               ; preds = %_ZSt13__check_facetISt5ctypeIcEERKT_PS3_.exit.i.i
  tail call void @_ZNKSt5ctypeIcE13_M_widen_initEv(ptr noundef nonnull align 8 dereferenceable(570) %20)
  %28 = load ptr, ptr %20, align 8, !tbaa !61
  %29 = getelementptr inbounds nuw i8, ptr %28, i64 48
  %30 = load ptr, ptr %29, align 8
  %31 = tail call noundef signext i8 %30(ptr noundef nonnull align 8 dereferenceable(570) %20, i8 noundef signext 10)
  br label %_ZSt4endlIcSt11char_traitsIcEERSt13basic_ostreamIT_T0_ES6_.exit

_ZSt4endlIcSt11char_traitsIcEERSt13basic_ostreamIT_T0_ES6_.exit: ; preds = %24, %27
  %.0.i.i.i = phi i8 [ %26, %24 ], [ %31, %27 ]
  %32 = tail call noundef nonnull align 8 dereferenceable(8) ptr @_ZNSo3putEc(ptr noundef nonnull align 8 dereferenceable(8) @_ZSt4cout, i8 noundef signext %.0.i.i.i)
  %33 = tail call noundef nonnull align 8 dereferenceable(8) ptr @_ZNSo5flushEv(ptr noundef nonnull align 8 dereferenceable(8) %32)
  ret void
}